target datalayout = "e-m:e-p270:32:32-p271:32:32-p272:64:64-i64:64-i128:128-f80:128-n8:16:32:64-S128"
target triple = "x86_64-pc-linux-gnu"

%struct._object = type { %union.anon, ptr }
%union.anon = type { i64 }
%struct._typeobject = type { %struct.PyVarObject, ptr, i64, i64, ptr, i64, ptr, ptr, ptr, ptr, ptr, ptr, ptr, ptr, ptr, ptr, ptr, ptr, ptr, i64, ptr, ptr, ptr, ptr, i64, ptr, ptr, ptr, ptr, ptr, ptr, ptr, ptr, ptr, i64, ptr, ptr, ptr, ptr, ptr, ptr, ptr, ptr, ptr, ptr, ptr, i32, ptr, ptr, i8, i16 }
%struct.PyVarObject = type { %struct._object, i64 }
%struct.Py_buffer = type { ptr, ptr, i64, i64, i32, i32, ptr, ptr, ptr, ptr, ptr }
%struct.anon = type { i32, i32 }
%struct.PyTupleObject = type { %struct.PyVarObject, [1 x ptr] }
%struct.iovec = type { ptr, i64 }
%struct.PyListObject = type { %struct.PyVarObject, ptr, i64 }

@PyExc_OSError = external global ptr, align 8
@.str.635 = private unnamed_addr constant [18 x i8] c"O|ni:recvmsg_into\00", align 1
@.str.636 = private unnamed_addr constant [46 x i8] c"recvmsg_into() argument 1 must be an iterable\00", align 1
@.str.637 = private unnamed_addr constant [38 x i8] c"recvmsg_into() argument 1 is too long\00", align 1
@.str.638 = private unnamed_addr constant [86 x i8] c"w*;recvmsg_into() argument 1 must be an iterable of single-segment read-write buffers\00", align 1

; Function Attrs: alwaysinline nounwind uwtable
define internal i32 @_Py_IsImmortal(ptr noundef %0) #8 {
  %2 = alloca ptr, align 8
  store ptr %0, ptr %2, align 8, !tbaa !3
  %3 = load ptr, ptr %2, align 8, !tbaa !3
  %4 = getelementptr inbounds nuw %struct._object, ptr %3, i32 0, i32 0
  %5 = getelementptr inbounds nuw %struct.anon, ptr %4, i32 0, i32 0
  %6 = load i32, ptr %5, align 8, !tbaa !35
  %7 = icmp slt i32 %6, 0
  %8 = zext i1 %7 to i32
  ret i32 %8
}

; Function Attrs: inlinehint nounwind uwtable
define internal i64 @Py_SIZE(ptr noundef %0) #3 {
  %2 = alloca ptr, align 8
  store ptr %0, ptr %2, align 8, !tbaa !3
  %3 = load ptr, ptr %2, align 8, !tbaa !3
  %4 = getelementptr inbounds nuw %struct.PyVarObject, ptr %3, i32 0, i32 1
  %5 = load i64, ptr %4, align 8, !tbaa !173
  ret i64 %5
}

; Function Attrs: alwaysinline nounwind uwtable
define internal void @Py_DECREF(ptr noundef %0) #8 {
  %2 = alloca ptr, align 8
  store ptr %0, ptr %2, align 8, !tbaa !3
  %3 = load ptr, ptr %2, align 8, !tbaa !3
  %4 = call i32 @_Py_IsImmortal(ptr noundef %3)
  %5 = icmp ne i32 %4, 0
  br i1 %5, label %6, label %7

6:                                                ; preds = %1
  br label %16

7:                                                ; preds = %1
  %8 = load ptr, ptr %2, align 8, !tbaa !3
  %9 = getelementptr inbounds nuw %struct._object, ptr %8, i32 0, i32 0
  %10 = getelementptr inbounds nuw %struct.anon, ptr %9, i32 0, i32 0
  %11 = load i32, ptr %10, align 8, !tbaa !35
  %12 = add i32 %11, -1
  store i32 %12, ptr %10, align 8, !tbaa !35
  %13 = icmp eq i32 %12, 0
  br i1 %13, label %14, label %16

14:                                               ; preds = %7
  %15 = load ptr, ptr %2, align 8, !tbaa !3
  call void @_Py_Dealloc(ptr noundef %15)
  br label %16

16:                                               ; preds = %6, %14, %7
  ret void
}

; Function Attrs: inlinehint nounwind uwtable
define internal i64 @PyTuple_GET_SIZE(ptr noundef %0) #3 {
  %2 = alloca ptr, align 8
  %3 = alloca ptr, align 8
  store ptr %0, ptr %2, align 8, !tbaa !3
  call void @llvm.lifetime.start.p0(i64 8, ptr %3) #10
  %4 = load ptr, ptr %2, align 8, !tbaa !3
  store ptr %4, ptr %3, align 8, !tbaa !8
  %5 = load ptr, ptr %3, align 8, !tbaa !8
  %6 = call i64 @Py_SIZE(ptr noundef %5)
  call void @llvm.lifetime.end.p0(i64 8, ptr %3) #10
  ret i64 %6
}

; Function Attrs: inlinehint nounwind uwtable
define internal i64 @PyList_GET_SIZE(ptr noundef %0) #3 {
  %2 = alloca ptr, align 8
  %3 = alloca ptr, align 8
  store ptr %0, ptr %2, align 8, !tbaa !3
  call void @llvm.lifetime.start.p0(i64 8, ptr %3) #10
  %4 = load ptr, ptr %2, align 8, !tbaa !3
  store ptr %4, ptr %3, align 8, !tbaa !8
  %5 = load ptr, ptr %3, align 8, !tbaa !8
  %6 = call i64 @Py_SIZE(ptr noundef %5)
  call void @llvm.lifetime.end.p0(i64 8, ptr %3) #10
  ret i64 %6
}

; Function Attrs: inlinehint nounwind uwtable
define internal i32 @PyType_HasFeature(ptr noundef %0, i64 noundef %1) #3 {
  %3 = alloca ptr, align 8
  %4 = alloca i64, align 8
  %5 = alloca i64, align 8
  store ptr %0, ptr %3, align 8, !tbaa !21
  store i64 %1, ptr %4, align 8, !tbaa !52
  call void @llvm.lifetime.start.p0(i64 8, ptr %5) #10
  %6 = load ptr, ptr %3, align 8, !tbaa !21
  %7 = getelementptr inbounds nuw %struct._typeobject, ptr %6, i32 0, i32 19
  %8 = load i64, ptr %7, align 8, !tbaa !115
  store i64 %8, ptr %5, align 8, !tbaa !52
  %9 = load i64, ptr %5, align 8, !tbaa !52
  %10 = load i64, ptr %4, align 8, !tbaa !52
  %11 = and i64 %9, %10
  %12 = icmp ne i64 %11, 0
  %13 = zext i1 %12 to i32
  call void @llvm.lifetime.end.p0(i64 8, ptr %5) #10
  ret i32 %13
}

; Function Attrs: inlinehint nounwind uwtable
define internal ptr @_Py_TYPE(ptr noundef %0) #3 {
  %2 = alloca ptr, align 8
  store ptr %0, ptr %2, align 8, !tbaa !3
  %3 = load ptr, ptr %2, align 8, !tbaa !3
  %4 = getelementptr inbounds nuw %struct._object, ptr %3, i32 0, i32 1
  %5 = load ptr, ptr %4, align 8, !tbaa !116
  ret ptr %5
}

; Function Attrs: nounwind uwtable
define internal ptr @sock_recvmsg_into(ptr noundef %0, ptr noundef %1) #0 {
  %3 = alloca ptr, align 8
  %4 = alloca ptr, align 8
  %5 = alloca ptr, align 8
  %6 = alloca ptr, align 8
  %7 = alloca i64, align 8
  %8 = alloca i32, align 4
  %9 = alloca ptr, align 8
  %10 = alloca i64, align 8
  %11 = alloca i64, align 8
  %12 = alloca i64, align 8
  %13 = alloca ptr, align 8
  %14 = alloca ptr, align 8
  %15 = alloca ptr, align 8
  %16 = alloca ptr, align 8
  %17 = alloca i32, align 4
  store ptr %0, ptr %4, align 8, !tbaa !3
  store ptr %1, ptr %5, align 8, !tbaa !3
  call void @llvm.lifetime.start.p0(i64 8, ptr %6) #10
  %18 = load ptr, ptr %4, align 8, !tbaa !3
  store ptr %18, ptr %6, align 8, !tbaa !8
  call void @llvm.lifetime.start.p0(i64 8, ptr %7) #10
  store i64 0, ptr %7, align 8, !tbaa !52
  call void @llvm.lifetime.start.p0(i64 4, ptr %8) #10
  store i32 0, ptr %8, align 4, !tbaa !15
  call void @llvm.lifetime.start.p0(i64 8, ptr %9) #10
  store ptr null, ptr %9, align 8, !tbaa !200
  call void @llvm.lifetime.start.p0(i64 8, ptr %10) #10
  call void @llvm.lifetime.start.p0(i64 8, ptr %11) #10
  call void @llvm.lifetime.start.p0(i64 8, ptr %12) #10
  store i64 0, ptr %12, align 8, !tbaa !52
  call void @llvm.lifetime.start.p0(i64 8, ptr %13) #10
  store ptr null, ptr %13, align 8, !tbaa !8
  call void @llvm.lifetime.start.p0(i64 8, ptr %14) #10
  call void @llvm.lifetime.start.p0(i64 8, ptr %15) #10
  call void @llvm.lifetime.start.p0(i64 8, ptr %16) #10
  store ptr null, ptr %16, align 8, !tbaa !3
  %19 = load ptr, ptr %5, align 8, !tbaa !3
  %20 = call i32 (ptr, ptr, ...) @PyArg_ParseTuple(ptr noundef %19, ptr noundef @.str.635, ptr noundef %14, ptr noundef %7, ptr noundef %8)
  %21 = icmp ne i32 %20, 0
  br i1 %21, label %23, label %22

22:                                               ; preds = %2
  store ptr null, ptr %3, align 8
  store i32 1, ptr %17, align 4
  br label %150

23:                                               ; preds = %2
  %24 = load ptr, ptr %14, align 8, !tbaa !3
  %25 = call ptr @PySequence_Fast(ptr noundef %24, ptr noundef @.str.636)
  store ptr %25, ptr %15, align 8, !tbaa !3
  %26 = icmp eq ptr %25, null
  br i1 %26, label %27, label %28

27:                                               ; preds = %23
  store ptr null, ptr %3, align 8
  store i32 1, ptr %17, align 4
  br label %150

28:                                               ; preds = %23
  %29 = load ptr, ptr %15, align 8, !tbaa !3
  %30 = call ptr @_Py_TYPE(ptr noundef %29)
  %31 = call i32 @PyType_HasFeature(ptr noundef %30, i64 noundef 33554432)
  %32 = icmp ne i32 %31, 0
  br i1 %32, label %33, label %36

33:                                               ; preds = %28
  %34 = load ptr, ptr %15, align 8, !tbaa !3
  %35 = call i64 @PyList_GET_SIZE(ptr noundef %34)
  br label %39

36:                                               ; preds = %28
  %37 = load ptr, ptr %15, align 8, !tbaa !3
  %38 = call i64 @PyTuple_GET_SIZE(ptr noundef %37)
  br label %39

39:                                               ; preds = %36, %33
  %40 = phi i64 [ %35, %33 ], [ %38, %36 ]
  store i64 %40, ptr %11, align 8, !tbaa !52
  %41 = load i64, ptr %11, align 8, !tbaa !52
  %42 = icmp sgt i64 %41, 2147483647
  br i1 %42, label %43, label %45

43:                                               ; preds = %39
  %44 = load ptr, ptr @PyExc_OSError, align 8, !tbaa !3
  call void @PyErr_SetString(ptr noundef %44, ptr noundef @.str.637)
  br label %133

45:                                               ; preds = %39
  %46 = load i64, ptr %11, align 8, !tbaa !52
  %47 = icmp sgt i64 %46, 0
  br i1 %47, label %48, label %72

48:                                               ; preds = %45
  %49 = load i64, ptr %11, align 8, !tbaa !52
  %50 = icmp ugt i64 %49, 576460752303423487
  br i1 %50, label %51, label %52

51:                                               ; preds = %48
  br label %56

52:                                               ; preds = %48
  %53 = load i64, ptr %11, align 8, !tbaa !52
  %54 = mul i64 %53, 16
  %55 = call ptr @PyMem_Malloc(i64 noundef %54)
  br label %56

56:                                               ; preds = %52, %51
  %57 = phi ptr [ null, %51 ], [ %55, %52 ]
  store ptr %57, ptr %9, align 8, !tbaa !200
  %58 = icmp eq ptr %57, null
  br i1 %58, label %70, label %59

59:                                               ; preds = %56
  %60 = load i64, ptr %11, align 8, !tbaa !52
  %61 = icmp ugt i64 %60, 115292150460684697
  br i1 %61, label %62, label %63

62:                                               ; preds = %59
  br label %67

63:                                               ; preds = %59
  %64 = load i64, ptr %11, align 8, !tbaa !52
  %65 = mul i64 %64, 80
  %66 = call ptr @PyMem_Malloc(i64 noundef %65)
  br label %67

67:                                               ; preds = %63, %62
  %68 = phi ptr [ null, %62 ], [ %66, %63 ]
  store ptr %68, ptr %13, align 8, !tbaa !8
  %69 = icmp eq ptr %68, null
  br i1 %69, label %70, label %72

70:                                               ; preds = %67, %56
  %71 = call ptr @PyErr_NoMemory()
  br label %133

72:                                               ; preds = %67, %45
  br label %73

73:                                               ; preds = %122, %72
  %74 = load i64, ptr %12, align 8, !tbaa !52
  %75 = load i64, ptr %11, align 8, !tbaa !52
  %76 = icmp slt i64 %74, %75
  br i1 %76, label %77, label %125

77:                                               ; preds = %73
  %78 = load ptr, ptr %15, align 8, !tbaa !3
  %79 = call ptr @_Py_TYPE(ptr noundef %78)
  %80 = call i32 @PyType_HasFeature(ptr noundef %79, i64 noundef 33554432)
  %81 = icmp ne i32 %80, 0
  br i1 %81, label %82, label %89

82:                                               ; preds = %77
  %83 = load ptr, ptr %15, align 8, !tbaa !3
  %84 = getelementptr inbounds nuw %struct.PyListObject, ptr %83, i32 0, i32 1
  %85 = load ptr, ptr %84, align 8, !tbaa !202
  %86 = load i64, ptr %12, align 8, !tbaa !52
  %87 = getelementptr ptr, ptr %85, i64 %86
  %88 = load ptr, ptr %87, align 8, !tbaa !3
  br label %95

89:                                               ; preds = %77
  %90 = load ptr, ptr %15, align 8, !tbaa !3
  %91 = getelementptr inbounds nuw %struct.PyTupleObject, ptr %90, i32 0, i32 1
  %92 = load i64, ptr %12, align 8, !tbaa !52
  %93 = getelementptr [1 x ptr], ptr %91, i64 0, i64 %92
  %94 = load ptr, ptr %93, align 8, !tbaa !3
  br label %95

95:                                               ; preds = %89, %82
  %96 = phi ptr [ %88, %82 ], [ %94, %89 ]
  %97 = load ptr, ptr %13, align 8, !tbaa !8
  %98 = load i64, ptr %12, align 8, !tbaa !52
  %99 = getelementptr %struct.Py_buffer, ptr %97, i64 %98
  %100 = call i32 (ptr, ptr, ...) @PyArg_Parse(ptr noundef %96, ptr noundef @.str.638, ptr noundef %99)
  %101 = icmp ne i32 %100, 0
  br i1 %101, label %103, label %102

102:                                              ; preds = %95
  br label %133

103:                                              ; preds = %95
  %104 = load ptr, ptr %13, align 8, !tbaa !8
  %105 = load i64, ptr %12, align 8, !tbaa !52
  %106 = getelementptr %struct.Py_buffer, ptr %104, i64 %105
  %107 = getelementptr inbounds nuw %struct.Py_buffer, ptr %106, i32 0, i32 0
  %108 = load ptr, ptr %107, align 8, !tbaa !36
  %109 = load ptr, ptr %9, align 8, !tbaa !200
  %110 = load i64, ptr %12, align 8, !tbaa !52
  %111 = getelementptr %struct.iovec, ptr %109, i64 %110
  %112 = getelementptr inbounds nuw %struct.iovec, ptr %111, i32 0, i32 0
  store ptr %108, ptr %112, align 8, !tbaa !197
  %113 = load ptr, ptr %13, align 8, !tbaa !8
  %114 = load i64, ptr %12, align 8, !tbaa !52
  %115 = getelementptr %struct.Py_buffer, ptr %113, i64 %114
  %116 = getelementptr inbounds nuw %struct.Py_buffer, ptr %115, i32 0, i32 2
  %117 = load i64, ptr %116, align 8, !tbaa !39
  %118 = load ptr, ptr %9, align 8, !tbaa !200
  %119 = load i64, ptr %12, align 8, !tbaa !52
  %120 = getelementptr %struct.iovec, ptr %118, i64 %119
  %121 = getelementptr inbounds nuw %struct.iovec, ptr %120, i32 0, i32 1
  store i64 %117, ptr %121, align 8, !tbaa !199
  br label %122

122:                                              ; preds = %103
  %123 = load i64, ptr %12, align 8, !tbaa !52
  %124 = add i64 %123, 1
  store i64 %124, ptr %12, align 8, !tbaa !52
  br label %73, !llvm.loop !204

125:                                              ; preds = %73
  %126 = load ptr, ptr %6, align 8, !tbaa !8
  %127 = load ptr, ptr %9, align 8, !tbaa !200
  %128 = load i64, ptr %11, align 8, !tbaa !52
  %129 = trunc i64 %128 to i32
  %130 = load i32, ptr %8, align 4, !tbaa !15
  %131 = load i64, ptr %7, align 8, !tbaa !52
  %132 = call ptr @sock_recvmsg_guts(ptr noundef %126, ptr noundef %127, i32 noundef %129, i32 noundef %130, i64 noundef %131, ptr noundef @makeval_recvmsg_into, ptr noundef null)
  store ptr %132, ptr %16, align 8, !tbaa !3
  br label %133

133:                                              ; preds = %125, %102, %70, %43
  store i64 0, ptr %10, align 8, !tbaa !52
  br label %134

134:                                              ; preds = %142, %133
  %135 = load i64, ptr %10, align 8, !tbaa !52
  %136 = load i64, ptr %12, align 8, !tbaa !52
  %137 = icmp slt i64 %135, %136
  br i1 %137, label %138, label %145

138:                                              ; preds = %134
  %139 = load ptr, ptr %13, align 8, !tbaa !8
  %140 = load i64, ptr %10, align 8, !tbaa !52
  %141 = getelementptr %struct.Py_buffer, ptr %139, i64 %140
  call void @PyBuffer_Release(ptr noundef %141)
  br label %142

142:                                              ; preds = %138
  %143 = load i64, ptr %10, align 8, !tbaa !52
  %144 = add i64 %143, 1
  store i64 %144, ptr %10, align 8, !tbaa !52
  br label %134, !llvm.loop !205

145:                                              ; preds = %134
  %146 = load ptr, ptr %13, align 8, !tbaa !8
  call void @PyMem_Free(ptr noundef %146)
  %147 = load ptr, ptr %9, align 8, !tbaa !200
  call void @PyMem_Free(ptr noundef %147)
  %148 = load ptr, ptr %15, align 8, !tbaa !3
  call void @Py_DECREF(ptr noundef %148)
  %149 = load ptr, ptr %16, align 8, !tbaa !3
  store ptr %149, ptr %3, align 8
  store i32 1, ptr %17, align 4
  br label %150

150:                                              ; preds = %145, %27, %22
  call void @llvm.lifetime.end.p0(i64 8, ptr %16) #10
  call void @llvm.lifetime.end.p0(i64 8, ptr %15) #10
  call void @llvm.lifetime.end.p0(i64 8, ptr %14) #10
  call void @llvm.lifetime.end.p0(i64 8, ptr %13) #10
  call void @llvm.lifetime.end.p0(i64 8, ptr %12) #10
  call void @llvm.lifetime.end.p0(i64 8, ptr %11) #10
  call void @llvm.lifetime.end.p0(i64 8, ptr %10) #10
  call void @llvm.lifetime.end.p0(i64 8, ptr %9) #10
  call void @llvm.lifetime.end.p0(i64 4, ptr %8) #10
  call void @llvm.lifetime.end.p0(i64 8, ptr %7) #10
  call void @llvm.lifetime.end.p0(i64 8, ptr %6) #10
  %151 = load ptr, ptr %3, align 8
  ret ptr %151
}