; Function Attrs: nounwind uwtable
define internal ptr @sock_recvmsg_into(ptr noundef %0, ptr noundef %1) #0 {
  %3 = alloca i64, align 8
  %4 = alloca i32, align 4
  %5 = alloca ptr, align 8
  call void @llvm.lifetime.start.p0(i64 8, ptr nonnull %3) #13
  store i64 0, ptr %3, align 8, !tbaa !47
  call void @llvm.lifetime.start.p0(i64 4, ptr nonnull %4) #13
  store i32 0, ptr %4, align 4, !tbaa !35
  call void @llvm.lifetime.start.p0(i64 8, ptr nonnull %5) #13
  %6 = call i32 (ptr, ptr, ...) @PyArg_ParseTuple(ptr noundef %1, ptr noundef nonnull @.str.635, ptr noundef nonnull %5, ptr noundef nonnull %3, ptr noundef nonnull %4) #13
  %.not = icmp eq i32 %6, 0
  br i1 %.not, label %Py_DECREF.exit, label %7

7:                                                ; preds = %2
  %8 = load ptr, ptr %5, align 8, !tbaa !19
  %9 = call ptr @PySequence_Fast(ptr noundef %8, ptr noundef nonnull @.str.636) #13
  %10 = icmp eq ptr %9, null
  br i1 %10, label %Py_DECREF.exit, label %11

11:                                               ; preds = %7
  %12 = getelementptr i8, ptr %9, i64 8
  %.in61 = getelementptr i8, ptr %9, i64 16
  %13 = load i64, ptr %.in61, align 8, !tbaa !63
  %14 = icmp sgt i64 %13, 2147483647
  br i1 %14, label %15, label %17

15:                                               ; preds = %11
  %16 = load ptr, ptr @PyExc_OSError, align 8, !tbaa !19
  call void @PyErr_SetString(ptr noundef %16, ptr noundef nonnull @.str.637) #13
  br label %._crit_edge67

17:                                               ; preds = %11
  %18 = icmp sgt i64 %13, 0
  br i1 %18, label %19, label %._crit_edge

19:                                               ; preds = %17
  %20 = shl nuw nsw i64 %13, 4
  %21 = call ptr @PyMem_Malloc(i64 noundef %20) #13
  %22 = icmp eq ptr %21, null
  br i1 %22, label %27, label %23

23:                                               ; preds = %19
  %24 = mul nuw nsw i64 %13, 80
  %25 = call ptr @PyMem_Malloc(i64 noundef %24) #13
  %26 = icmp eq ptr %25, null
  br i1 %26, label %27, label %.lr.ph

27:                                               ; preds = %23, %19
  %28 = call ptr @PyErr_NoMemory() #13
  br label %._crit_edge67

.lr.ph:                                           ; preds = %23
  %29 = getelementptr inbounds nuw i8, ptr %9, i64 24
  br label %30

30:                                               ; preds = %.lr.ph, %42
  %.14463 = phi i64 [ 0, %.lr.ph ], [ %48, %42 ]
  %.val56 = load ptr, ptr %12, align 8, !tbaa !39
  %31 = getelementptr i8, ptr %.val56, i64 168
  %.val58 = load i64, ptr %31, align 8, !tbaa !40
  %32 = and i64 %.val58, 33554432
  %.not54 = icmp eq i64 %32, 0
  br i1 %.not54, label %36, label %33

33:                                               ; preds = %30
  %34 = load ptr, ptr %29, align 8, !tbaa !167
  %35 = getelementptr ptr, ptr %34, i64 %.14463
  br label %38

36:                                               ; preds = %30
  %37 = getelementptr [1 x ptr], ptr %29, i64 0, i64 %.14463
  br label %38

38:                                               ; preds = %36, %33
  %.in = phi ptr [ %35, %33 ], [ %37, %36 ]
  %39 = load ptr, ptr %.in, align 8, !tbaa !19
  %40 = getelementptr %struct.Py_buffer, ptr %25, i64 %.14463
  %41 = call i32 (ptr, ptr, ...) @PyArg_Parse(ptr noundef %39, ptr noundef nonnull @.str.638, ptr noundef %40) #13
  %.not55 = icmp eq i32 %41, 0
  br i1 %.not55, label %.loopexit, label %42

42:                                               ; preds = %38
  %43 = load ptr, ptr %40, align 8, !tbaa !27
  %44 = getelementptr %struct.iovec, ptr %21, i64 %.14463
  store ptr %43, ptr %44, align 8, !tbaa !164
  %45 = getelementptr inbounds nuw i8, ptr %40, i64 16
  %46 = load i64, ptr %45, align 8, !tbaa !31
  %47 = getelementptr inbounds nuw i8, ptr %44, i64 8
  store i64 %46, ptr %47, align 8, !tbaa !166
  %48 = add nuw nsw i64 %.14463, 1
  %exitcond.not = icmp eq i64 %48, %13
  br i1 %exitcond.not, label %._crit_edge, label %30, !llvm.loop !170

._crit_edge:                                      ; preds = %42, %17
  %.176 = phi ptr [ null, %17 ], [ %25, %42 ]
  %.14674 = phi ptr [ null, %17 ], [ %21, %42 ]
  %.144.lcssa = phi i64 [ 0, %17 ], [ %13, %42 ]
  %49 = trunc i64 %13 to i32
  %50 = load i32, ptr %4, align 4, !tbaa !35
  %51 = load i64, ptr %3, align 8, !tbaa !47
  %52 = call fastcc ptr @sock_recvmsg_guts(ptr noundef %0, ptr noundef %.14674, i32 noundef %49, i32 noundef %50, i64 noundef %51, ptr noundef nonnull @makeval_recvmsg_into, ptr noundef null)
  br label %.loopexit

.loopexit:                                        ; preds = %38, %._crit_edge
  %.045 = phi ptr [ %.14674, %._crit_edge ], [ %21, %38 ]
  %.043 = phi i64 [ %.144.lcssa, %._crit_edge ], [ %.14463, %38 ]
  %.042 = phi ptr [ %.176, %._crit_edge ], [ %25, %38 ]
  %.0 = phi ptr [ %52, %._crit_edge ], [ null, %38 ]
  %.not68 = icmp eq i64 %.043, 0
  br i1 %.not68, label %._crit_edge67, label %.lr.ph66

.lr.ph66:                                         ; preds = %.loopexit, %.lr.ph66
  %.04764 = phi i64 [ %54, %.lr.ph66 ], [ 0, %.loopexit ]
  %53 = getelementptr %struct.Py_buffer, ptr %.042, i64 %.04764
  call void @PyBuffer_Release(ptr noundef %53) #13
  %54 = add nuw nsw i64 %.04764, 1
  %exitcond70.not = icmp eq i64 %54, %.043
  br i1 %exitcond70.not, label %._crit_edge67, label %.lr.ph66, !llvm.loop !171

._crit_edge67:                                    ; preds = %.lr.ph66, %27, %15, %.loopexit
  %.084 = phi ptr [ %.0, %.loopexit ], [ null, %15 ], [ null, %27 ], [ %.0, %.lr.ph66 ]
  %.04283 = phi ptr [ %.042, %.loopexit ], [ null, %15 ], [ null, %27 ], [ %.042, %.lr.ph66 ]
  %.04582 = phi ptr [ %.045, %.loopexit ], [ null, %15 ], [ %21, %27 ], [ %.045, %.lr.ph66 ]
  call void @PyMem_Free(ptr noundef %.04283) #13
  call void @PyMem_Free(ptr noundef %.04582) #13
  %55 = load i32, ptr %9, align 8, !tbaa !18
  %.not.i = icmp sgt i32 %55, -1
  br i1 %.not.i, label %56, label %Py_DECREF.exit

56:                                               ; preds = %._crit_edge67
  %57 = add nsw i32 %55, -1
  store i32 %57, ptr %9, align 8, !tbaa !18
  %58 = icmp eq i32 %57, 0
  br i1 %58, label %59, label %Py_DECREF.exit

59:                                               ; preds = %56
  call void @_Py_Dealloc(ptr noundef nonnull %9) #13
  br label %Py_DECREF.exit

Py_DECREF.exit:                                   ; preds = %59, %56, %._crit_edge67, %7, %2
  %.041 = phi ptr [ null, %2 ], [ null, %7 ], [ %.084, %._crit_edge67 ], [ %.084, %56 ], [ %.084, %59 ]
  call void @llvm.lifetime.end.p0(i64 8, ptr nonnull %5) #13
  call void @llvm.lifetime.end.p0(i64 4, ptr nonnull %4) #13
  call void @llvm.lifetime.end.p0(i64 8, ptr nonnull %3) #13
  ret ptr %.041
}